; ModuleID = '10/1774.c'
source_filename = "10/1774.c"
target datalayout = "e-m:e-p270:32:32-p271:32:32-p272:64:64-i64:64-f80:128-n8:16:32:64-S128"
target triple = "x86_64-pc-linux-gnu"

@a = common dso_local global [25 x i32] zeroinitializer, align 16
@.str = private unnamed_addr constant [3 x i8] c"%d\00", align 1

; Function Attrs: noinline nounwind uwtable
define dso_local i32 @f(i32 %0) #0 {
  %2 = alloca i32, align 4
  %3 = alloca i32, align 4
  %4 = alloca i32, align 4
  %5 = alloca i32, align 4
  store i32 %0, i32* %2, align 4
  store i32 1, i32* %3, align 4
  store i32 1, i32* %4, align 4
  %6 = load i32, i32* %2, align 4
  %7 = add nsw i32 %6, 1
  %8 = sext i32 %7 to i64
  %9 = getelementptr inbounds [25 x i32], [25 x i32]* @a, i64 0, i64 %8
  %10 = load i32, i32* %9, align 4
  %11 = icmp eq i32 %10, 0
  br i1 %11, label %12, label %13

12:                                               ; preds = %1
  store i32 1, i32* %4, align 4
  br label %47

13:                                               ; preds = %1
  %14 = load i32, i32* %2, align 4
  %15 = add nsw i32 %14, 1
  store i32 %15, i32* %5, align 4
  br label %16

16:                                               ; preds = %43, %13
  %17 = load i32, i32* %5, align 4
  %18 = sext i32 %17 to i64
  %19 = getelementptr inbounds [25 x i32], [25 x i32]* @a, i64 0, i64 %18
  %20 = load i32, i32* %19, align 4
  %21 = icmp ne i32 %20, 0
  br i1 %21, label %22, label %46

22:                                               ; preds = %16
  %23 = load i32, i32* %2, align 4
  %24 = sext i32 %23 to i64
  %25 = getelementptr inbounds [25 x i32], [25 x i32]* @a, i64 0, i64 %24
  %26 = load i32, i32* %25, align 4
  %27 = load i32, i32* %5, align 4
  %28 = sext i32 %27 to i64
  %29 = getelementptr inbounds [25 x i32], [25 x i32]* @a, i64 0, i64 %28
  %30 = load i32, i32* %29, align 4
  %31 = icmp sge i32 %26, %30
  br i1 %31, label %32, label %42

32:                                               ; preds = %22
  %33 = load i32, i32* %5, align 4
  %34 = call i32 @f(i32 %33)
  %35 = add nsw i32 %34, 1
  store i32 %35, i32* %3, align 4
  %36 = load i32, i32* %3, align 4
  %37 = load i32, i32* %4, align 4
  %38 = icmp sgt i32 %36, %37
  br i1 %38, label %39, label %41

39:                                               ; preds = %32
  %40 = load i32, i32* %3, align 4
  store i32 %40, i32* %4, align 4
  br label %41

41:                                               ; preds = %39, %32
  br label %42

42:                                               ; preds = %41, %22
  br label %43

43:                                               ; preds = %42
  %44 = load i32, i32* %5, align 4
  %45 = add nsw i32 %44, 1
  store i32 %45, i32* %5, align 4
  br label %16

46:                                               ; preds = %16
  br label %47

47:                                               ; preds = %46, %12
  %48 = load i32, i32* %4, align 4
  ret i32 %48
}

; Function Attrs: noinline nounwind uwtable
define dso_local i32 @main() #0 {
  %1 = alloca i32, align 4
  %2 = alloca i32, align 4
  %3 = alloca i32, align 4
  %4 = alloca i32, align 4
  %5 = alloca i32, align 4
  %6 = alloca i32, align 4
  store i32 0, i32* %1, align 4
  %7 = call i32 (i8*, ...) @__isoc99_scanf(i8* getelementptr inbounds ([3 x i8], [3 x i8]* @.str, i64 0, i64 0), i32* %2)
  call void @llvm.memset.p0i8.i64(i8* align 16 bitcast ([25 x i32]* @a to i8*), i8 0, i64 100, i1 false)
  store i32 0, i32* %5, align 4
  br label %8

8:                                                ; preds = %17, %0
  %9 = load i32, i32* %5, align 4
  %10 = load i32, i32* %2, align 4
  %11 = icmp slt i32 %9, %10
  br i1 %11, label %12, label %20

12:                                               ; preds = %8
  %13 = load i32, i32* %5, align 4
  %14 = sext i32 %13 to i64
  %15 = getelementptr inbounds [25 x i32], [25 x i32]* @a, i64 0, i64 %14
  %16 = call i32 (i8*, ...) @__isoc99_scanf(i8* getelementptr inbounds ([3 x i8], [3 x i8]* @.str, i64 0, i64 0), i32* %15)
  br label %17

17:                                               ; preds = %12
  %18 = load i32, i32* %5, align 4
  %19 = add nsw i32 %18, 1
  store i32 %19, i32* %5, align 4
  br label %8

20:                                               ; preds = %8
  %21 = load i32, i32* %2, align 4
  %22 = sub nsw i32 %21, 1
  %23 = call i32 @f(i32 %22)
  store i32 %23, i32* %6, align 4
  %24 = load i32, i32* %2, align 4
  %25 = sub nsw i32 %24, 2
  store i32 %25, i32* %5, align 4
  br label %26

26:                                               ; preds = %40, %20
  %27 = load i32, i32* %5, align 4
  %28 = icmp sge i32 %27, 0
  br i1 %28, label %29, label %43

29:                                               ; preds = %26
  %30 = load i32, i32* %5, align 4
  %31 = call i32 @f(i32 %30)
  %32 = load i32, i32* %6, align 4
  %33 = load i32, i32* %5, align 4
  %34 = call i32 @f(i32 %33)
  %35 = icmp slt i32 %32, %34
  br i1 %35, label %36, label %39

36:                                               ; preds = %29
  %37 = load i32, i32* %5, align 4
  %38 = call i32 @f(i32 %37)
  store i32 %38, i32* %6, align 4
  br label %39

39:                                               ; preds = %36, %29
  br label %40

40:                                               ; preds = %39
  %41 = load i32, i32* %5, align 4
  %42 = add nsw i32 %41, -1
  store i32 %42, i32* %5, align 4
  br label %26

43:                                               ; preds = %26
  %44 = load i32, i32* %6, align 4
  %45 = call i32 (i8*, ...) @printf(i8* getelementptr inbounds ([3 x i8], [3 x i8]* @.str, i64 0, i64 0), i32 %44)
  %46 = call i32 @getchar()
  %47 = call i32 @getchar()
  %48 = load i32, i32* %1, align 4
  ret i32 %48
}

declare dso_local i32 @__isoc99_scanf(i8*, ...) #1

; Function Attrs: argmemonly nounwind willreturn
declare void @llvm.memset.p0i8.i64(i8* nocapture writeonly, i8, i64, i1 immarg) #2

declare dso_local i32 @printf(i8*, ...) #1

declare dso_local i32 @getchar() #1


!llvm.module.flags = !{!0}
!llvm.ident = !{!1}

!0 = !{i32 1, !"wchar_size", i32 4}
!1 = !{!"clang version 10.0.0-4ubuntu1 "}
