; ModuleID = 'source-C-CXX/9/1774.c'
source_filename = "source-C-CXX/9/1774.c"
target datalayout = "e-m:e-p270:32:32-p271:32:32-p272:64:64-i64:64-f80:128-n8:16:32:64-S128"
target triple = "x86_64-pc-linux-gnu"

%struct._IO_FILE = type { i32, i8*, i8*, i8*, i8*, i8*, i8*, i8*, i8*, i8*, i8*, i8*, %struct._IO_marker*, %struct._IO_FILE*, i32, i32, i64, i16, i8, [1 x i8], i8*, i64, %struct._IO_codecvt*, %struct._IO_wide_data*, %struct._IO_FILE*, i8*, i64, i32, [20 x i8] }
%struct._IO_marker = type opaque
%struct._IO_codecvt = type opaque
%struct._IO_wide_data = type opaque

@a = dso_local global [25 x i32] zeroinitializer, align 16
@.str = private unnamed_addr constant [3 x i8] c"%d\00", align 1
@stdin = external local_unnamed_addr global %struct._IO_FILE*, align 8

; Function Attrs: nofree nosync nounwind readonly sspstrong uwtable
define dso_local i32 @f(i32 %0) local_unnamed_addr #0 {
  %2 = add i32 %0, 1
  %3 = sext i32 %2 to i64
  %4 = getelementptr inbounds [25 x i32], [25 x i32]* @a, i64 0, i64 %3
  %5 = load i32, i32* %4, align 4, !tbaa !5
  %6 = icmp eq i32 %5, 0
  br i1 %6, label %28, label %7

7:                                                ; preds = %1
  %8 = sext i32 %0 to i64
  %9 = getelementptr inbounds [25 x i32], [25 x i32]* @a, i64 0, i64 %8
  %10 = load i32, i32* %9, align 4, !tbaa !5
  br label %11

11:                                               ; preds = %7, %22
  %12 = phi i64 [ %3, %7 ], [ %24, %22 ]
  %13 = phi i32 [ %5, %7 ], [ %26, %22 ]
  %14 = phi i32 [ 1, %7 ], [ %23, %22 ]
  %15 = icmp slt i32 %10, %13
  br i1 %15, label %22, label %16

16:                                               ; preds = %11
  %17 = trunc i64 %12 to i32
  %18 = tail call i32 @f(i32 %17)
  %19 = icmp slt i32 %18, %14
  %20 = add nsw i32 %18, 1
  %21 = select i1 %19, i32 %14, i32 %20
  br label %22

22:                                               ; preds = %16, %11
  %23 = phi i32 [ %14, %11 ], [ %21, %16 ]
  %24 = add i64 %12, 1
  %25 = getelementptr inbounds [25 x i32], [25 x i32]* @a, i64 0, i64 %24
  %26 = load i32, i32* %25, align 4, !tbaa !5
  %27 = icmp eq i32 %26, 0
  br i1 %27, label %28, label %11, !llvm.loop !9

28:                                               ; preds = %22, %1
  %29 = phi i32 [ 1, %1 ], [ %23, %22 ]
  ret i32 %29
}

; Function Attrs: argmemonly mustprogress nofree nosync nounwind willreturn
declare void @llvm.lifetime.start.p0i8(i64 immarg, i8* nocapture) #1

; Function Attrs: argmemonly mustprogress nofree nosync nounwind willreturn
declare void @llvm.lifetime.end.p0i8(i64 immarg, i8* nocapture) #1

; Function Attrs: nofree nounwind sspstrong uwtable
define dso_local i32 @main() local_unnamed_addr #2 {
  %1 = alloca i32, align 4
  %2 = bitcast i32* %1 to i8*
  call void @llvm.lifetime.start.p0i8(i64 4, i8* nonnull %2) #5
  %3 = call i32 (i8*, ...) @__isoc99_scanf(i8* getelementptr inbounds ([3 x i8], [3 x i8]* @.str, i64 0, i64 0), i32* nonnull %1)
  call void @llvm.memset.p0i8.i64(i8* noundef nonnull align 16 dereferenceable(100) bitcast ([25 x i32]* @a to i8*), i8 0, i64 100, i1 false)
  %4 = load i32, i32* %1, align 4, !tbaa !5
  %5 = icmp sgt i32 %4, 0
  br i1 %5, label %9, label %6

6:                                                ; preds = %0
  %7 = add nsw i32 %4, -1
  %8 = call i32 @f(i32 %7)
  br label %31

9:                                                ; preds = %0, %9
  %10 = phi i64 [ %13, %9 ], [ 0, %0 ]
  %11 = getelementptr inbounds [25 x i32], [25 x i32]* @a, i64 0, i64 %10
  %12 = call i32 (i8*, ...) @__isoc99_scanf(i8* getelementptr inbounds ([3 x i8], [3 x i8]* @.str, i64 0, i64 0), i32* nonnull %11)
  %13 = add nuw nsw i64 %10, 1
  %14 = load i32, i32* %1, align 4, !tbaa !5
  %15 = sext i32 %14 to i64
  %16 = icmp slt i64 %13, %15
  br i1 %16, label %9, label %17, !llvm.loop !11

17:                                               ; preds = %9
  %18 = add nsw i32 %14, -1
  %19 = call i32 @f(i32 %18)
  %20 = icmp sgt i32 %14, 1
  br i1 %20, label %21, label %31

21:                                               ; preds = %17
  %22 = add nsw i32 %14, -2
  br label %23

23:                                               ; preds = %21, %23
  %24 = phi i32 [ %28, %23 ], [ %19, %21 ]
  %25 = phi i32 [ %29, %23 ], [ %22, %21 ]
  %26 = call i32 @f(i32 %25)
  %27 = icmp slt i32 %24, %26
  %28 = select i1 %27, i32 %26, i32 %24
  %29 = add nsw i32 %25, -1
  %30 = icmp sgt i32 %25, 0
  br i1 %30, label %23, label %31, !llvm.loop !12

31:                                               ; preds = %23, %6, %17
  %32 = phi i32 [ %19, %17 ], [ %8, %6 ], [ %28, %23 ]
  %33 = call i32 (i8*, ...) @printf(i8* nonnull dereferenceable(1) getelementptr inbounds ([3 x i8], [3 x i8]* @.str, i64 0, i64 0), i32 %32)
  %34 = load %struct._IO_FILE*, %struct._IO_FILE** @stdin, align 8, !tbaa !13
  %35 = call i32 @getc(%struct._IO_FILE* %34) #5
  %36 = load %struct._IO_FILE*, %struct._IO_FILE** @stdin, align 8, !tbaa !13
  %37 = call i32 @getc(%struct._IO_FILE* %36) #5
  call void @llvm.lifetime.end.p0i8(i64 4, i8* nonnull %2) #5
  ret i32 0
}

; Function Attrs: nofree nounwind
declare noundef i32 @__isoc99_scanf(i8* nocapture noundef readonly, ...) local_unnamed_addr #3

; Function Attrs: argmemonly mustprogress nofree nounwind willreturn writeonly
declare void @llvm.memset.p0i8.i64(i8* nocapture writeonly, i8, i64, i1 immarg) #4

; Function Attrs: nofree nounwind
declare noundef i32 @printf(i8* nocapture noundef readonly, ...) local_unnamed_addr #3

; Function Attrs: nofree nounwind
declare noundef i32 @getc(%struct._IO_FILE* nocapture noundef) local_unnamed_addr #3


!llvm.module.flags = !{!0, !1, !2, !3}
!llvm.ident = !{!4}

!0 = !{i32 1, !"wchar_size", i32 4}
!1 = !{i32 7, !"PIC Level", i32 2}
!2 = !{i32 7, !"PIE Level", i32 2}
!3 = !{i32 7, !"uwtable", i32 1}
!4 = !{!"clang version 13.0.0"}
!5 = !{!6, !6, i64 0}
!6 = !{!"int", !7, i64 0}
!7 = !{!"omnipotent char", !8, i64 0}
!8 = !{!"Simple C/C++ TBAA"}
!9 = distinct !{!9, !10}
!10 = !{!"llvm.loop.mustprogress"}
!11 = distinct !{!11, !10}
!12 = distinct !{!12, !10}
!13 = !{!14, !14, i64 0}
!14 = !{!"any pointer", !7, i64 0}
